; Function Attrs: mustprogress uwtable
define hidden void @_ZN5osgeo4proj17NetworkChunkCache19clearDiskChunkCacheEP6pj_ctx(ptr noundef %0) local_unnamed_addr #3 align 2 personality ptr @__gxx_personality_v0 {
  %2 = alloca %"class.std::unique_ptr", align 8
  call void @llvm.lifetime.start.p0(i64 8, ptr nonnull %2) #30
  call void @_ZN5osgeo4proj14DiskChunkCache4openEP6pj_ctx(ptr dead_on_unwind nonnull writable sret(%"class.std::unique_ptr") align 8 %2, ptr noundef %0)
  %3 = load ptr, ptr %2, align 8, !tbaa !71
  %.not = icmp eq ptr %3, null
  br i1 %.not, label %_ZNSt10unique_ptrIN5osgeo4proj14DiskChunkCacheESt14default_deleteIS2_EED2Ev.exit, label %4

4:                                                ; preds = %1
  %5 = getelementptr inbounds nuw i8, ptr %3, i64 40
  %6 = load ptr, ptr %5, align 8, !tbaa !77
  %.not.i.i = icmp eq ptr %6, null
  br i1 %.not.i.i, label %_ZN5osgeo4proj14DiskChunkCache14commitAndCloseEv.exit.i, label %7

7:                                                ; preds = %4
  %8 = invoke i32 @sqlite3_exec(ptr noundef nonnull %6, ptr noundef nonnull @.str.32, ptr noundef null, ptr noundef null, ptr noundef null)
          to label %.noexc unwind label %25

.noexc:                                           ; preds = %7
  %.not1.i.i = icmp eq i32 %8, 0
  br i1 %.not1.i.i, label %.noexc3, label %9

9:                                                ; preds = %.noexc
  %10 = load ptr, ptr %3, align 8, !tbaa !58
  %11 = load ptr, ptr %5, align 8, !tbaa !77
  %12 = invoke ptr @sqlite3_errmsg(ptr noundef %11)
          to label %.noexc2 unwind label %25

.noexc2:                                          ; preds = %9
  invoke void (ptr, i32, ptr, ...) @_Z6pj_logP6pj_ctxiPKcz(ptr noundef %10, i32 noundef 1, ptr noundef nonnull @.str.3, ptr noundef %12)
          to label %.noexc3 unwind label %25

.noexc3:                                          ; preds = %.noexc2, %.noexc
  %13 = load ptr, ptr %5, align 8, !tbaa !77
  %14 = invoke i32 @sqlite3_close(ptr noundef %13)
          to label %.noexc4 unwind label %25

.noexc4:                                          ; preds = %.noexc3
  store ptr null, ptr %5, align 8, !tbaa !77
  br label %_ZN5osgeo4proj14DiskChunkCache14commitAndCloseEv.exit.i

_ZN5osgeo4proj14DiskChunkCache14commitAndCloseEv.exit.i: ; preds = %.noexc4, %4
  %15 = getelementptr inbounds nuw i8, ptr %3, i64 48
  %16 = load ptr, ptr %15, align 8, !tbaa !76
  %.not.i = icmp eq ptr %16, null
  br i1 %.not.i, label %_ZN5osgeo4proj14DiskChunkCache14closeAndUnlinkEv.exit, label %17

17:                                               ; preds = %_ZN5osgeo4proj14DiskChunkCache14commitAndCloseEv.exit.i
  %18 = load ptr, ptr %16, align 8, !tbaa !100
  %19 = getelementptr inbounds nuw i8, ptr %18, i64 8
  %20 = getelementptr inbounds nuw i8, ptr %18, i64 56
  %21 = load ptr, ptr %20, align 8, !tbaa !103
  %22 = getelementptr inbounds nuw i8, ptr %3, i64 8
  %23 = load ptr, ptr %22, align 8, !tbaa !18
  %24 = invoke noundef i32 %21(ptr noundef nonnull %19, ptr noundef %23, i32 noundef 0)
          to label %_ZN5osgeo4proj14DiskChunkCache14closeAndUnlinkEv.exit unwind label %25

_ZN5osgeo4proj14DiskChunkCache14closeAndUnlinkEv.exit: ; preds = %_ZN5osgeo4proj14DiskChunkCache14commitAndCloseEv.exit.i, %17
  %.pr = load ptr, ptr %2, align 8, !tbaa !71
  %.not.i6 = icmp eq ptr %.pr, null
  br i1 %.not.i6, label %_ZNSt10unique_ptrIN5osgeo4proj14DiskChunkCacheESt14default_deleteIS2_EED2Ev.exit, label %_ZNKSt14default_deleteIN5osgeo4proj14DiskChunkCacheEEclEPS2_.exit.i

_ZNKSt14default_deleteIN5osgeo4proj14DiskChunkCacheEEclEPS2_.exit.i: ; preds = %_ZN5osgeo4proj14DiskChunkCache14closeAndUnlinkEv.exit
  call void @_ZN5osgeo4proj14DiskChunkCacheD2Ev(ptr noundef nonnull align 8 dereferenceable(56) %.pr) #30
  call void @_ZdlPvm(ptr noundef nonnull %.pr, i64 noundef 56) #31
  br label %_ZNSt10unique_ptrIN5osgeo4proj14DiskChunkCacheESt14default_deleteIS2_EED2Ev.exit

_ZNSt10unique_ptrIN5osgeo4proj14DiskChunkCacheESt14default_deleteIS2_EED2Ev.exit: ; preds = %1, %_ZN5osgeo4proj14DiskChunkCache14closeAndUnlinkEv.exit, %_ZNKSt14default_deleteIN5osgeo4proj14DiskChunkCacheEEclEPS2_.exit.i
  call void @llvm.lifetime.end.p0(i64 8, ptr nonnull %2) #30
  ret void

25:                                               ; preds = %17, %.noexc3, %.noexc2, %9, %7
  %26 = landingpad { ptr, i32 }
          cleanup
  call void @_ZNSt10unique_ptrIN5osgeo4proj14DiskChunkCacheESt14default_deleteIS2_EED2Ev(ptr noundef nonnull align 8 dereferenceable(8) %2) #30
  call void @llvm.lifetime.end.p0(i64 8, ptr nonnull %2) #30
  resume { ptr, i32 } %26
}